target datalayout = "e-m:e-p270:32:32-p271:32:32-p272:64:64-i64:64-i128:128-f80:128-n8:16:32:64-S128"
target triple = "x86_64-pc-linux-gnu"

%struct.llama_kv_cache_view = type { i32, i32, i32, i32, i32, i32, ptr, ptr }
%struct.llama_kv_cache_view_cell = type { i32 }

@_ZZ25common_kv_cache_dump_viewRK19llama_kv_cache_viewiE10slot_chars = internal constant [64 x i8] c".123456789ABCDEFGHIJKLMNOPQRSTUVWXYZabcdefghijklmnopqrstuvwxyz+\00", align 16
@.str.71 = private unnamed_addr constant [138 x i8] c"=== Dumping KV cache. total cells %d, max sequences per cell %d, populated cells %d, total tokens in cache %d, largest empty slot=%d @ %d\00", align 1
@.str.72 = private unnamed_addr constant [7 x i8] c"\0A%5d: \00", align 1
@.str.73 = private unnamed_addr constant [19 x i8] c"\0A=== Done dumping\0A\00", align 1
@stdout = external global ptr, align 8

; Function Attrs: inlinehint mustprogress uwtable
define available_externally i32 @putchar(i32 noundef %0) #7 {
  %2 = alloca i32, align 4
  store i32 %0, ptr %2, align 4, !tbaa !3
  %3 = load i32, ptr %2, align 4, !tbaa !3
  %4 = load ptr, ptr @stdout, align 8, !tbaa !407
  %5 = call i32 @putc(i32 noundef %3, ptr noundef %4)
  ret i32 %5
}

; Function Attrs: inlinehint mustprogress nounwind uwtable
define linkonce_odr noundef nonnull align 8 dereferenceable(8) ptr @_ZSt3minImERKT_S2_S2_(ptr noundef nonnull align 8 dereferenceable(8) %0, ptr noundef nonnull align 8 dereferenceable(8) %1) #8 comdat {
  %3 = alloca ptr, align 8
  %4 = alloca ptr, align 8
  %5 = alloca ptr, align 8
  store ptr %0, ptr %4, align 8, !tbaa !45
  store ptr %1, ptr %5, align 8, !tbaa !45
  %6 = load ptr, ptr %5, align 8, !tbaa !45
  %7 = load i64, ptr %6, align 8, !tbaa !42
  %8 = load ptr, ptr %4, align 8, !tbaa !45
  %9 = load i64, ptr %8, align 8, !tbaa !42
  %10 = icmp ult i64 %7, %9
  br i1 %10, label %11, label %13

11:                                               ; preds = %2
  %12 = load ptr, ptr %5, align 8, !tbaa !45
  store ptr %12, ptr %3, align 8
  br label %15

13:                                               ; preds = %2
  %14 = load ptr, ptr %4, align 8, !tbaa !45
  store ptr %14, ptr %3, align 8
  br label %15

15:                                               ; preds = %13, %11
  %16 = load ptr, ptr %3, align 8
  ret ptr %16
}

; Function Attrs: mustprogress uwtable
define void @_Z25common_kv_cache_dump_viewRK19llama_kv_cache_viewi(ptr noundef nonnull align 8 dereferenceable(40) %0, i32 noundef %1) #4 {
  %3 = alloca ptr, align 8
  %4 = alloca i32, align 4
  %5 = alloca ptr, align 8
  %6 = alloca ptr, align 8
  %7 = alloca i32, align 4
  %8 = alloca i32, align 4
  %9 = alloca i32, align 4
  %10 = alloca i32, align 4
  %11 = alloca i64, align 8
  %12 = alloca i64, align 8
  store ptr %0, ptr %3, align 8, !tbaa !392
  store i32 %1, ptr %4, align 4, !tbaa !3
  %13 = load ptr, ptr %3, align 8, !tbaa !392
  %14 = getelementptr inbounds nuw %struct.llama_kv_cache_view, ptr %13, i32 0, i32 0
  %15 = load i32, ptr %14, align 8, !tbaa !394
  %16 = load ptr, ptr %3, align 8, !tbaa !392
  %17 = getelementptr inbounds nuw %struct.llama_kv_cache_view, ptr %16, i32 0, i32 1
  %18 = load i32, ptr %17, align 4, !tbaa !397
  %19 = load ptr, ptr %3, align 8, !tbaa !392
  %20 = getelementptr inbounds nuw %struct.llama_kv_cache_view, ptr %19, i32 0, i32 3
  %21 = load i32, ptr %20, align 4, !tbaa !398
  %22 = load ptr, ptr %3, align 8, !tbaa !392
  %23 = getelementptr inbounds nuw %struct.llama_kv_cache_view, ptr %22, i32 0, i32 2
  %24 = load i32, ptr %23, align 8, !tbaa !399
  %25 = load ptr, ptr %3, align 8, !tbaa !392
  %26 = getelementptr inbounds nuw %struct.llama_kv_cache_view, ptr %25, i32 0, i32 4
  %27 = load i32, ptr %26, align 8, !tbaa !400
  %28 = load ptr, ptr %3, align 8, !tbaa !392
  %29 = getelementptr inbounds nuw %struct.llama_kv_cache_view, ptr %28, i32 0, i32 5
  %30 = load i32, ptr %29, align 4, !tbaa !401
  %31 = call i32 (ptr, ...) @printf(ptr noundef @.str.71, i32 noundef %15, i32 noundef %18, i32 noundef %21, i32 noundef %24, i32 noundef %27, i32 noundef %30)
  call void @llvm.lifetime.start.p0(i64 8, ptr %5) #3
  %32 = load ptr, ptr %3, align 8, !tbaa !392
  %33 = getelementptr inbounds nuw %struct.llama_kv_cache_view, ptr %32, i32 0, i32 6
  %34 = load ptr, ptr %33, align 8, !tbaa !402
  store ptr %34, ptr %5, align 8, !tbaa !403
  call void @llvm.lifetime.start.p0(i64 8, ptr %6) #3
  %35 = load ptr, ptr %3, align 8, !tbaa !392
  %36 = getelementptr inbounds nuw %struct.llama_kv_cache_view, ptr %35, i32 0, i32 7
  %37 = load ptr, ptr %36, align 8, !tbaa !404
  store ptr %37, ptr %6, align 8, !tbaa !140
  call void @llvm.lifetime.start.p0(i64 4, ptr %7) #3
  store i32 0, ptr %7, align 4, !tbaa !3
  br label %38

38:                                               ; preds = %84, %2
  %39 = load i32, ptr %7, align 4, !tbaa !3
  %40 = load ptr, ptr %3, align 8, !tbaa !392
  %41 = getelementptr inbounds nuw %struct.llama_kv_cache_view, ptr %40, i32 0, i32 0
  %42 = load i32, ptr %41, align 8, !tbaa !394
  %43 = icmp slt i32 %39, %42
  br i1 %43, label %45, label %44

44:                                               ; preds = %38
  store i32 2, ptr %8, align 4
  call void @llvm.lifetime.end.p0(i64 4, ptr %7) #3
  br label %95

45:                                               ; preds = %38
  %46 = load i32, ptr %7, align 4, !tbaa !3
  %47 = load i32, ptr %4, align 4, !tbaa !3
  %48 = srem i32 %46, %47
  %49 = icmp eq i32 %48, 0
  br i1 %49, label %50, label %53

50:                                               ; preds = %45
  %51 = load i32, ptr %7, align 4, !tbaa !3
  %52 = call i32 (ptr, ...) @printf(ptr noundef @.str.72, i32 noundef %51)
  br label %53

53:                                               ; preds = %50, %45
  call void @llvm.lifetime.start.p0(i64 4, ptr %9) #3
  store i32 0, ptr %9, align 4, !tbaa !3
  call void @llvm.lifetime.start.p0(i64 4, ptr %10) #3
  store i32 0, ptr %10, align 4, !tbaa !3
  br label %54

54:                                               ; preds = %72, %53
  %55 = load i32, ptr %10, align 4, !tbaa !3
  %56 = load ptr, ptr %3, align 8, !tbaa !392
  %57 = getelementptr inbounds nuw %struct.llama_kv_cache_view, ptr %56, i32 0, i32 1
  %58 = load i32, ptr %57, align 4, !tbaa !397
  %59 = icmp slt i32 %55, %58
  br i1 %59, label %61, label %60

60:                                               ; preds = %54
  store i32 5, ptr %8, align 4
  call void @llvm.lifetime.end.p0(i64 4, ptr %10) #3
  br label %75

61:                                               ; preds = %54
  %62 = load ptr, ptr %6, align 8, !tbaa !140
  %63 = load i32, ptr %10, align 4, !tbaa !3
  %64 = sext i32 %63 to i64
  %65 = getelementptr inbounds i32, ptr %62, i64 %64
  %66 = load i32, ptr %65, align 4, !tbaa !3
  %67 = icmp sge i32 %66, 0
  br i1 %67, label %68, label %71

68:                                               ; preds = %61
  %69 = load i32, ptr %9, align 4, !tbaa !3
  %70 = add nsw i32 %69, 1
  store i32 %70, ptr %9, align 4, !tbaa !3
  br label %71

71:                                               ; preds = %68, %61
  br label %72

72:                                               ; preds = %71
  %73 = load i32, ptr %10, align 4, !tbaa !3
  %74 = add nsw i32 %73, 1
  store i32 %74, ptr %10, align 4, !tbaa !3
  br label %54, !llvm.loop !405

75:                                               ; preds = %60
  call void @llvm.lifetime.start.p0(i64 8, ptr %11) #3
  store i64 62, ptr %11, align 8, !tbaa !42
  call void @llvm.lifetime.start.p0(i64 8, ptr %12) #3
  %76 = load i32, ptr %9, align 4, !tbaa !3
  %77 = sext i32 %76 to i64
  store i64 %77, ptr %12, align 8, !tbaa !42
  %78 = call noundef nonnull align 8 dereferenceable(8) ptr @_ZSt3minImERKT_S2_S2_(ptr noundef nonnull align 8 dereferenceable(8) %11, ptr noundef nonnull align 8 dereferenceable(8) %12)
  %79 = load i64, ptr %78, align 8, !tbaa !42
  %80 = getelementptr inbounds nuw [64 x i8], ptr @_ZZ25common_kv_cache_dump_viewRK19llama_kv_cache_viewiE10slot_chars, i64 0, i64 %79
  %81 = load i8, ptr %80, align 1, !tbaa !35
  %82 = sext i8 %81 to i32
  %83 = call i32 @putchar(i32 noundef %82)
  call void @llvm.lifetime.end.p0(i64 8, ptr %12) #3
  call void @llvm.lifetime.end.p0(i64 8, ptr %11) #3
  call void @llvm.lifetime.end.p0(i64 4, ptr %9) #3
  br label %84

84:                                               ; preds = %75
  %85 = load i32, ptr %7, align 4, !tbaa !3
  %86 = add nsw i32 %85, 1
  store i32 %86, ptr %7, align 4, !tbaa !3
  %87 = load ptr, ptr %5, align 8, !tbaa !403
  %88 = getelementptr inbounds nuw %struct.llama_kv_cache_view_cell, ptr %87, i32 1
  store ptr %88, ptr %5, align 8, !tbaa !403
  %89 = load ptr, ptr %3, align 8, !tbaa !392
  %90 = getelementptr inbounds nuw %struct.llama_kv_cache_view, ptr %89, i32 0, i32 1
  %91 = load i32, ptr %90, align 4, !tbaa !397
  %92 = load ptr, ptr %6, align 8, !tbaa !140
  %93 = sext i32 %91 to i64
  %94 = getelementptr inbounds i32, ptr %92, i64 %93
  store ptr %94, ptr %6, align 8, !tbaa !140
  br label %38, !llvm.loop !406

95:                                               ; preds = %44
  %96 = call i32 (ptr, ...) @printf(ptr noundef @.str.73)
  call void @llvm.lifetime.end.p0(i64 8, ptr %6) #3
  call void @llvm.lifetime.end.p0(i64 8, ptr %5) #3
  ret void
}