; Function Attrs: mustprogress nofree nounwind uwtable
define void @_Z25common_kv_cache_dump_viewRK19llama_kv_cache_viewi(ptr noundef nonnull readonly align 8 captures(none) dereferenceable(40) %0, i32 noundef %1) local_unnamed_addr #23 {
  %3 = load i32, ptr %0, align 8, !tbaa !469
  %4 = getelementptr inbounds nuw i8, ptr %0, i64 4
  %5 = load i32, ptr %4, align 4, !tbaa !472
  %6 = getelementptr inbounds nuw i8, ptr %0, i64 12
  %7 = load i32, ptr %6, align 4, !tbaa !473
  %8 = getelementptr inbounds nuw i8, ptr %0, i64 8
  %9 = load i32, ptr %8, align 8, !tbaa !474
  %10 = getelementptr inbounds nuw i8, ptr %0, i64 16
  %11 = load i32, ptr %10, align 8, !tbaa !475
  %12 = getelementptr inbounds nuw i8, ptr %0, i64 20
  %13 = load i32, ptr %12, align 4, !tbaa !476
  %14 = tail call i32 (ptr, ...) @printf(ptr noundef nonnull dereferenceable(1) @.str.71, i32 noundef %3, i32 noundef %5, i32 noundef %7, i32 noundef %9, i32 noundef %11, i32 noundef %13)
  %15 = load i32, ptr %0, align 8, !tbaa !469
  %16 = icmp sgt i32 %15, 0
  br i1 %16, label %.lr.ph35.preheader, label %._crit_edge36

.lr.ph35.preheader:                               ; preds = %2
  %17 = getelementptr inbounds nuw i8, ptr %0, i64 32
  %18 = load ptr, ptr %17, align 8, !tbaa !477
  br label %.lr.ph35

._crit_edge36:                                    ; preds = %._crit_edge, %2
  %puts = tail call i32 @puts(ptr nonnull dereferenceable(1) @str.1)
  ret void

.lr.ph35:                                         ; preds = %.lr.ph35.preheader, %._crit_edge
  %.02433 = phi i32 [ %32, %._crit_edge ], [ 0, %.lr.ph35.preheader ]
  %.02532 = phi ptr [ %35, %._crit_edge ], [ %18, %.lr.ph35.preheader ]
  %19 = srem i32 %.02433, %1
  %20 = icmp eq i32 %19, 0
  br i1 %20, label %21, label %23

21:                                               ; preds = %.lr.ph35
  %22 = tail call i32 (ptr, ...) @printf(ptr noundef nonnull dereferenceable(1) @.str.72, i32 noundef %.02433)
  br label %23

23:                                               ; preds = %21, %.lr.ph35
  %24 = load i32, ptr %4, align 4, !tbaa !472
  %25 = icmp sgt i32 %24, 0
  br i1 %25, label %.lr.ph.preheader, label %._crit_edge

.lr.ph.preheader:                                 ; preds = %23
  %wide.trip.count = zext nneg i32 %24 to i64
  br label %.lr.ph

._crit_edge:                                      ; preds = %.lr.ph, %23
  %.023.lcssa = phi i32 [ 0, %23 ], [ %spec.select, %.lr.ph ]
  %26 = tail call i32 @llvm.umin.i32(i32 %.023.lcssa, i32 62)
  %.sroa.speculated = zext nneg i32 %26 to i64
  %27 = getelementptr inbounds nuw [64 x i8], ptr @_ZZ25common_kv_cache_dump_viewRK19llama_kv_cache_viewiE10slot_chars, i64 0, i64 %.sroa.speculated
  %28 = load i8, ptr %27, align 1, !tbaa !28
  %29 = sext i8 %28 to i32
  %30 = load ptr, ptr @stdout, align 8, !tbaa !478
  %31 = tail call i32 @putc(i32 noundef %29, ptr noundef %30)
  %32 = add nuw nsw i32 %.02433, 1
  %33 = load i32, ptr %4, align 4, !tbaa !472
  %34 = sext i32 %33 to i64
  %35 = getelementptr inbounds i32, ptr %.02532, i64 %34
  %36 = load i32, ptr %0, align 8, !tbaa !469
  %37 = icmp slt i32 %32, %36
  br i1 %37, label %.lr.ph35, label %._crit_edge36, !llvm.loop !480

.lr.ph:                                           ; preds = %.lr.ph.preheader, %.lr.ph
  %indvars.iv = phi i64 [ 0, %.lr.ph.preheader ], [ %indvars.iv.next, %.lr.ph ]
  %.02330 = phi i32 [ 0, %.lr.ph.preheader ], [ %spec.select, %.lr.ph ]
  %38 = getelementptr inbounds nuw i32, ptr %.02532, i64 %indvars.iv
  %39 = load i32, ptr %38, align 4, !tbaa !72
  %40 = icmp sgt i32 %39, -1
  %41 = zext i1 %40 to i32
  %spec.select = add nuw nsw i32 %.02330, %41
  %indvars.iv.next = add nuw nsw i64 %indvars.iv, 1
  %exitcond.not = icmp eq i64 %indvars.iv.next, %wide.trip.count
  br i1 %exitcond.not, label %._crit_edge, label %.lr.ph, !llvm.loop !481
}